target datalayout = "e-m:e-p270:32:32-p271:32:32-p272:64:64-i64:64-i128:128-f80:128-n8:16:32:64-S128"
target triple = "x86_64-unknown-linux-gnu"

%struct.MachineClass = type { %struct.ObjectClass, ptr, ptr, ptr, ptr, ptr, ptr, ptr, ptr, ptr, i32, i32, i32, i32, i32, i8, i8, ptr, ptr, ptr, ptr, ptr, ptr, i64, ptr, i8, i8, i8, i32, i8, i8, i32, ptr, ptr, i8, i8, i8, i8, i8, i8, i8, i8, %struct.SMPCompatProps, ptr, ptr, ptr, ptr, ptr, ptr, ptr }
%struct.ObjectClass = type { ptr, ptr, [4 x ptr], [4 x ptr], ptr, ptr }
%struct.SMPCompatProps = type { i8, i8, i8, i8, i8, i8 }
%struct.MachineState = type { %struct.Object, ptr, ptr, ptr, i32, ptr, i8, i8, i8, i8, ptr, i8, i8, i8, ptr, ptr, ptr, ptr, ptr, i64, i64, i64, %struct.BootConfiguration, ptr, ptr, ptr, ptr, ptr, ptr, %struct.CpuTopology, ptr, ptr }
%struct.Object = type { ptr, ptr, ptr, i32, ptr }
%struct.BootConfiguration = type { ptr, ptr, i8, i8, ptr, i8, i64, i8, i64, i8, i8 }
%struct.CpuTopology = type { i32, i32, i32, i32, i32, i32, i32, i32, i32 }
%struct.ErrorPropagator = type { ptr, ptr }

@error_fatal = external global ptr, align 8
@.str.225 = private unnamed_addr constant [8 x i8] c"machine\00", align 1
@.str.226 = private unnamed_addr constant [98 x i8] c"/home/dtcxzyw/WorkSpace/Projects/compilers/llvm-opt-benchmark/bench/qemu/qemu/include/hw/boards.h\00", align 1
@__func__.MACHINE_GET_CLASS = private unnamed_addr constant [18 x i8] c"MACHINE_GET_CLASS\00", align 1
@__func__.MACHINE = private unnamed_addr constant [8 x i8] c"MACHINE\00", align 1

; Function Attrs: nounwind sspstrong uwtable
define internal void @error_propagator_cleanup(ptr noundef %prop) #0 {
entry:
  %prop.addr = alloca ptr, align 8
  store ptr %prop, ptr %prop.addr, align 8
  %0 = load ptr, ptr %prop.addr, align 8
  %errp = getelementptr inbounds %struct.ErrorPropagator, ptr %0, i32 0, i32 1
  %1 = load ptr, ptr %errp, align 8
  %2 = load ptr, ptr %prop.addr, align 8
  %local_err = getelementptr inbounds %struct.ErrorPropagator, ptr %2, i32 0, i32 0
  %3 = load ptr, ptr %local_err, align 8
  call void @error_propagate(ptr noundef %1, ptr noundef %3)
  ret void
}

; Function Attrs: nounwind sspstrong uwtable
define internal void @machine_free_boot_config(ptr noundef %ms) #0 {
entry:
  %ms.addr = alloca ptr, align 8
  store ptr %ms, ptr %ms.addr, align 8
  %0 = load ptr, ptr %ms.addr, align 8
  %boot_config = getelementptr inbounds %struct.MachineState, ptr %0, i32 0, i32 22
  %order = getelementptr inbounds %struct.BootConfiguration, ptr %boot_config, i32 0, i32 0
  %1 = load ptr, ptr %order, align 8
  call void @g_free(ptr noundef %1)
  %2 = load ptr, ptr %ms.addr, align 8
  %boot_config1 = getelementptr inbounds %struct.MachineState, ptr %2, i32 0, i32 22
  %once = getelementptr inbounds %struct.BootConfiguration, ptr %boot_config1, i32 0, i32 1
  %3 = load ptr, ptr %once, align 8
  call void @g_free(ptr noundef %3)
  %4 = load ptr, ptr %ms.addr, align 8
  %boot_config2 = getelementptr inbounds %struct.MachineState, ptr %4, i32 0, i32 22
  %splash = getelementptr inbounds %struct.BootConfiguration, ptr %boot_config2, i32 0, i32 4
  %5 = load ptr, ptr %splash, align 8
  call void @g_free(ptr noundef %5)
  ret void
}

; Function Attrs: nounwind sspstrong uwtable
define internal ptr @MACHINE_GET_CLASS(ptr noundef %obj) #0 {
entry:
  %obj.addr = alloca ptr, align 8
  store ptr %obj, ptr %obj.addr, align 8
  %0 = load ptr, ptr %obj.addr, align 8
  %call = call ptr @object_get_class(ptr noundef %0)
  %call1 = call ptr @object_class_dynamic_cast_assert(ptr noundef %call, ptr noundef @.str.225, ptr noundef @.str.226, i32 noundef 23, ptr noundef @__func__.MACHINE_GET_CLASS)
  ret ptr %call1
}

; Function Attrs: nounwind sspstrong uwtable
define internal void @glib_auto_cleanup_ErrorPropagator(ptr noundef %_ptr) #0 {
entry:
  %_ptr.addr = alloca ptr, align 8
  store ptr %_ptr, ptr %_ptr.addr, align 8
  %0 = load ptr, ptr %_ptr.addr, align 8
  call void @error_propagator_cleanup(ptr noundef %0)
  ret void
}

; Function Attrs: nounwind sspstrong uwtable
define internal void @machine_copy_boot_config(ptr noundef %ms, ptr noundef %config) #0 {
entry:
  %ms.addr = alloca ptr, align 8
  %config.addr = alloca ptr, align 8
  %machine_class = alloca ptr, align 8
  store ptr %ms, ptr %ms.addr, align 8
  store ptr %config, ptr %config.addr, align 8
  %0 = load ptr, ptr %ms.addr, align 8
  %call = call ptr @MACHINE_GET_CLASS(ptr noundef %0)
  store ptr %call, ptr %machine_class, align 8
  %1 = load ptr, ptr %ms.addr, align 8
  call void @machine_free_boot_config(ptr noundef %1)
  %2 = load ptr, ptr %ms.addr, align 8
  %boot_config = getelementptr inbounds %struct.MachineState, ptr %2, i32 0, i32 22
  %3 = load ptr, ptr %config.addr, align 8
  call void @llvm.memcpy.p0.p0.i64(ptr align 8 %boot_config, ptr align 8 %3, i64 72, i1 false)
  %4 = load ptr, ptr %config.addr, align 8
  %order = getelementptr inbounds %struct.BootConfiguration, ptr %4, i32 0, i32 0
  %5 = load ptr, ptr %order, align 8
  %tobool = icmp ne ptr %5, null
  br i1 %tobool, label %if.end, label %if.then

if.then:                                          ; preds = %entry
  %6 = load ptr, ptr %machine_class, align 8
  %default_boot_order = getelementptr inbounds %struct.MachineClass, ptr %6, i32 0, i32 18
  %7 = load ptr, ptr %default_boot_order, align 8
  %call1 = call noalias ptr @g_strdup(ptr noundef %7)
  %8 = load ptr, ptr %ms.addr, align 8
  %boot_config2 = getelementptr inbounds %struct.MachineState, ptr %8, i32 0, i32 22
  %order3 = getelementptr inbounds %struct.BootConfiguration, ptr %boot_config2, i32 0, i32 0
  store ptr %call1, ptr %order3, align 8
  br label %if.end

if.end:                                           ; preds = %if.then, %entry
  ret void
}

; Function Attrs: nounwind sspstrong uwtable
define internal ptr @MACHINE(ptr noundef %obj) #0 {
entry:
  %obj.addr = alloca ptr, align 8
  store ptr %obj, ptr %obj.addr, align 8
  %0 = load ptr, ptr %obj.addr, align 8
  %call = call ptr @object_dynamic_cast_assert(ptr noundef %0, ptr noundef @.str.225, ptr noundef @.str.226, i32 noundef 23, ptr noundef @__func__.MACHINE)
  ret ptr %call
}

; Function Attrs: nounwind sspstrong uwtable
define internal void @machine_set_boot(ptr noundef %obj, ptr noundef %v, ptr noundef %name, ptr noundef %opaque, ptr noundef %errp) #0 {
entry:
  %obj.addr = alloca ptr, align 8
  %v.addr = alloca ptr, align 8
  %name.addr = alloca ptr, align 8
  %opaque.addr = alloca ptr, align 8
  %errp.addr = alloca ptr, align 8
  %_auto_errp_prop = alloca %struct.ErrorPropagator, align 8
  %ms = alloca ptr, align 8
  %config = alloca ptr, align 8
  %cleanup.dest.slot = alloca i32, align 4
  store ptr %obj, ptr %obj.addr, align 8
  store ptr %v, ptr %v.addr, align 8
  store ptr %name, ptr %name.addr, align 8
  store ptr %opaque, ptr %opaque.addr, align 8
  store ptr %errp, ptr %errp.addr, align 8
  %local_err = getelementptr inbounds %struct.ErrorPropagator, ptr %_auto_errp_prop, i32 0, i32 0
  store ptr null, ptr %local_err, align 8
  %errp1 = getelementptr inbounds %struct.ErrorPropagator, ptr %_auto_errp_prop, i32 0, i32 1
  %0 = load ptr, ptr %errp.addr, align 8
  store ptr %0, ptr %errp1, align 8
  br label %do.body

do.body:                                          ; preds = %entry
  %1 = load ptr, ptr %errp.addr, align 8
  %tobool = icmp ne ptr %1, null
  br i1 %tobool, label %lor.lhs.false, label %if.then

lor.lhs.false:                                    ; preds = %do.body
  %2 = load ptr, ptr %errp.addr, align 8
  %cmp = icmp eq ptr %2, @error_fatal
  br i1 %cmp, label %if.then, label %if.end

if.then:                                          ; preds = %lor.lhs.false, %do.body
  %local_err2 = getelementptr inbounds %struct.ErrorPropagator, ptr %_auto_errp_prop, i32 0, i32 0
  store ptr %local_err2, ptr %errp.addr, align 8
  br label %if.end

if.end:                                           ; preds = %if.then, %lor.lhs.false
  br label %do.cond

do.cond:                                          ; preds = %if.end
  br label %do.end

do.end:                                           ; preds = %do.cond
  %3 = load ptr, ptr %obj.addr, align 8
  %call = call ptr @MACHINE(ptr noundef %3)
  store ptr %call, ptr %ms, align 8
  store ptr null, ptr %config, align 8
  %4 = load ptr, ptr %v.addr, align 8
  %5 = load ptr, ptr %name.addr, align 8
  %6 = load ptr, ptr %errp.addr, align 8
  %call3 = call zeroext i1 @visit_type_BootConfiguration(ptr noundef %4, ptr noundef %5, ptr noundef %config, ptr noundef %6)
  br i1 %call3, label %if.end5, label %if.then4

if.then4:                                         ; preds = %do.end
  store i32 1, ptr %cleanup.dest.slot, align 4
  br label %cleanup

if.end5:                                          ; preds = %do.end
  %7 = load ptr, ptr %config, align 8
  %order = getelementptr inbounds %struct.BootConfiguration, ptr %7, i32 0, i32 0
  %8 = load ptr, ptr %order, align 8
  %tobool6 = icmp ne ptr %8, null
  br i1 %tobool6, label %if.then7, label %if.end12

if.then7:                                         ; preds = %if.end5
  %9 = load ptr, ptr %config, align 8
  %order8 = getelementptr inbounds %struct.BootConfiguration, ptr %9, i32 0, i32 0
  %10 = load ptr, ptr %order8, align 8
  %11 = load ptr, ptr %errp.addr, align 8
  call void @validate_bootdevices(ptr noundef %10, ptr noundef %11)
  %12 = load ptr, ptr %errp.addr, align 8
  %13 = load ptr, ptr %12, align 8
  %tobool9 = icmp ne ptr %13, null
  br i1 %tobool9, label %if.then10, label %if.end11

if.then10:                                        ; preds = %if.then7
  br label %out_free

if.end11:                                         ; preds = %if.then7
  br label %if.end12

if.end12:                                         ; preds = %if.end11, %if.end5
  %14 = load ptr, ptr %config, align 8
  %once = getelementptr inbounds %struct.BootConfiguration, ptr %14, i32 0, i32 1
  %15 = load ptr, ptr %once, align 8
  %tobool13 = icmp ne ptr %15, null
  br i1 %tobool13, label %if.then14, label %if.end19

if.then14:                                        ; preds = %if.end12
  %16 = load ptr, ptr %config, align 8
  %once15 = getelementptr inbounds %struct.BootConfiguration, ptr %16, i32 0, i32 1
  %17 = load ptr, ptr %once15, align 8
  %18 = load ptr, ptr %errp.addr, align 8
  call void @validate_bootdevices(ptr noundef %17, ptr noundef %18)
  %19 = load ptr, ptr %errp.addr, align 8
  %20 = load ptr, ptr %19, align 8
  %tobool16 = icmp ne ptr %20, null
  br i1 %tobool16, label %if.then17, label %if.end18

if.then17:                                        ; preds = %if.then14
  br label %out_free

if.end18:                                         ; preds = %if.then14
  br label %if.end19

if.end19:                                         ; preds = %if.end18, %if.end12
  %21 = load ptr, ptr %ms, align 8
  %22 = load ptr, ptr %config, align 8
  call void @machine_copy_boot_config(ptr noundef %21, ptr noundef %22)
  %23 = load ptr, ptr %config, align 8
  call void @free(ptr noundef %23) #15
  store i32 1, ptr %cleanup.dest.slot, align 4
  br label %cleanup

out_free:                                         ; preds = %if.then17, %if.then10
  %24 = load ptr, ptr %config, align 8
  call void @qapi_free_BootConfiguration(ptr noundef %24)
  store i32 0, ptr %cleanup.dest.slot, align 4
  br label %cleanup

cleanup:                                          ; preds = %out_free, %if.end19, %if.then4
  call void @glib_auto_cleanup_ErrorPropagator(ptr noundef %_auto_errp_prop)
  %cleanup.dest = load i32, ptr %cleanup.dest.slot, align 4
  switch i32 %cleanup.dest, label %unreachable [
    i32 0, label %cleanup.cont
    i32 1, label %cleanup.cont
  ]

cleanup.cont:                                     ; preds = %cleanup, %cleanup
  ret void

unreachable:                                      ; preds = %cleanup
  unreachable
}