; Function Attrs: nounwind sspstrong uwtable
define internal void @machine_set_boot(ptr noundef %obj, ptr noundef %v, ptr noundef %name, ptr readnone captures(none) %opaque, ptr noundef %errp) #0 {
entry:
  %_auto_errp_prop = alloca %struct.ErrorPropagator, align 8
  %config = alloca ptr, align 8
  store ptr null, ptr %_auto_errp_prop, align 8
  %errp1 = getelementptr inbounds nuw i8, ptr %_auto_errp_prop, i64 8
  store ptr %errp, ptr %errp1, align 8
  %tobool = icmp eq ptr %errp, null
  %cmp = icmp eq ptr %errp, @error_fatal
  %or.cond = or i1 %tobool, %cmp
  %spec.select = select i1 %or.cond, ptr %_auto_errp_prop, ptr %errp
  %call.i = tail call ptr @object_dynamic_cast_assert(ptr noundef %obj, ptr noundef nonnull @.str.225, ptr noundef nonnull @.str.226, i32 noundef 23, ptr noundef nonnull @__func__.MACHINE) #16
  store ptr null, ptr %config, align 8
  %call3 = call zeroext i1 @visit_type_BootConfiguration(ptr noundef %v, ptr noundef %name, ptr noundef nonnull %config, ptr noundef %spec.select) #16
  br i1 %call3, label %if.end5, label %cleanup

if.end5:                                          ; preds = %entry
  %0 = load ptr, ptr %config, align 8
  %1 = load ptr, ptr %0, align 8
  %tobool6.not = icmp eq ptr %1, null
  br i1 %tobool6.not, label %if.end12, label %if.then7

if.then7:                                         ; preds = %if.end5
  call void @validate_bootdevices(ptr noundef nonnull %1, ptr noundef nonnull %spec.select) #16
  %2 = load ptr, ptr %spec.select, align 8
  %tobool9.not = icmp eq ptr %2, null
  br i1 %tobool9.not, label %if.then7.if.end12_crit_edge, label %out_free

if.then7.if.end12_crit_edge:                      ; preds = %if.then7
  %.pre = load ptr, ptr %config, align 8
  br label %if.end12

if.end12:                                         ; preds = %if.then7.if.end12_crit_edge, %if.end5
  %3 = phi ptr [ %.pre, %if.then7.if.end12_crit_edge ], [ %0, %if.end5 ]
  %once = getelementptr inbounds nuw i8, ptr %3, i64 8
  %4 = load ptr, ptr %once, align 8
  %tobool13.not = icmp eq ptr %4, null
  br i1 %tobool13.not, label %if.end19, label %if.then14

if.then14:                                        ; preds = %if.end12
  call void @validate_bootdevices(ptr noundef nonnull %4, ptr noundef nonnull %spec.select) #16
  %5 = load ptr, ptr %spec.select, align 8
  %tobool16.not = icmp eq ptr %5, null
  br i1 %tobool16.not, label %if.then14.if.end19_crit_edge, label %out_free

if.then14.if.end19_crit_edge:                     ; preds = %if.then14
  %.pre10 = load ptr, ptr %config, align 8
  br label %if.end19

if.end19:                                         ; preds = %if.then14.if.end19_crit_edge, %if.end12
  %6 = phi ptr [ %.pre10, %if.then14.if.end19_crit_edge ], [ %3, %if.end12 ]
  %call.i.i = call ptr @object_get_class(ptr noundef %call.i) #16
  %call1.i.i = call ptr @object_class_dynamic_cast_assert(ptr noundef %call.i.i, ptr noundef nonnull @.str.225, ptr noundef nonnull @.str.226, i32 noundef 23, ptr noundef nonnull @__func__.MACHINE_GET_CLASS) #16
  %boot_config.i.i = getelementptr inbounds nuw i8, ptr %call.i, i64 168
  %7 = load ptr, ptr %boot_config.i.i, align 8
  call void @g_free(ptr noundef %7) #16
  %once.i.i = getelementptr inbounds nuw i8, ptr %call.i, i64 176
  %8 = load ptr, ptr %once.i.i, align 8
  call void @g_free(ptr noundef %8) #16
  %splash.i.i = getelementptr inbounds nuw i8, ptr %call.i, i64 192
  %9 = load ptr, ptr %splash.i.i, align 8
  call void @g_free(ptr noundef %9) #16
  call void @llvm.memcpy.p0.p0.i64(ptr noundef nonnull align 8 dereferenceable(72) %boot_config.i.i, ptr noundef nonnull readonly align 8 dereferenceable(72) %6, i64 72, i1 false)
  %10 = load ptr, ptr %6, align 8
  %tobool.not.i = icmp eq ptr %10, null
  br i1 %tobool.not.i, label %if.then.i, label %machine_copy_boot_config.exit

if.then.i:                                        ; preds = %if.end19
  %default_boot_order.i = getelementptr inbounds nuw i8, ptr %call1.i.i, i64 200
  %11 = load ptr, ptr %default_boot_order.i, align 8
  %call1.i = call noalias ptr @g_strdup(ptr noundef %11) #16
  store ptr %call1.i, ptr %boot_config.i.i, align 8
  br label %machine_copy_boot_config.exit

machine_copy_boot_config.exit:                    ; preds = %if.end19, %if.then.i
  %12 = load ptr, ptr %config, align 8
  call void @free(ptr noundef %12) #16
  br label %cleanup

out_free:                                         ; preds = %if.then14, %if.then7
  %13 = load ptr, ptr %config, align 8
  call void @qapi_free_BootConfiguration(ptr noundef %13) #16
  br label %cleanup

cleanup:                                          ; preds = %entry, %out_free, %machine_copy_boot_config.exit
  %_auto_errp_prop.val = load ptr, ptr %_auto_errp_prop, align 8
  %_auto_errp_prop.val9 = load ptr, ptr %errp1, align 8
  call void @error_propagate(ptr noundef %_auto_errp_prop.val9, ptr noundef %_auto_errp_prop.val) #16
  ret void
}